target datalayout = "e-m:e-p270:32:32-p271:32:32-p272:64:64-i64:64-i128:128-f80:128-n8:16:32:64-S128"
target triple = "x86_64-unknown-linux-gnu"

%"class.icu_75::FormattedValue" = type { ptr }
%"class.icu_75::number::FormattedNumberRange" = type <{ %"class.icu_75::FormattedValue", ptr, i32, [4 x i8] }>

@_ZTVN6icu_7514FormattedValueE = external unnamed_addr constant { [8 x ptr] }, align 8

; Function Attrs: mustprogress nounwind uwtable
define linkonce_odr void @_ZN6icu_7514FormattedValueC2Ev(ptr noundef nonnull align 8 dereferenceable(8) %this) unnamed_addr #0 comdat align 2 {
entry:
  %this.addr = alloca ptr, align 8
  store ptr %this, ptr %this.addr, align 8
  %this1 = load ptr, ptr %this.addr, align 8
  store ptr getelementptr inbounds ({ [8 x ptr] }, ptr @_ZTVN6icu_7514FormattedValueE, i32 0, i32 0, i32 2), ptr %this1, align 8
  ret void
}

; Function Attrs: mustprogress nounwind uwtable
define void @_ZN6icu_756number20FormattedNumberRangeC2EOS1_(ptr noundef nonnull align 8 dereferenceable(20) %this, ptr noundef nonnull align 8 dereferenceable(20) %src) unnamed_addr #0 align 2 {
entry:
  %this.addr = alloca ptr, align 8
  %src.addr = alloca ptr, align 8
  store ptr %this, ptr %this.addr, align 8
  store ptr %src, ptr %src.addr, align 8
  %this1 = load ptr, ptr %this.addr, align 8
  call void @_ZN6icu_7514FormattedValueC2Ev(ptr noundef nonnull align 8 dereferenceable(8) %this1) #7
  store ptr getelementptr inbounds ({ [8 x ptr] }, ptr @_ZTVN6icu_756number20FormattedNumberRangeE, i32 0, i32 0, i32 2), ptr %this1, align 8
  %fData = getelementptr inbounds %"class.icu_75::number::FormattedNumberRange", ptr %this1, i32 0, i32 1
  %0 = load ptr, ptr %src.addr, align 8
  %fData2 = getelementptr inbounds %"class.icu_75::number::FormattedNumberRange", ptr %0, i32 0, i32 1
  %1 = load ptr, ptr %fData2, align 8
  store ptr %1, ptr %fData, align 8
  %fErrorCode = getelementptr inbounds %"class.icu_75::number::FormattedNumberRange", ptr %this1, i32 0, i32 2
  %2 = load ptr, ptr %src.addr, align 8
  %fErrorCode3 = getelementptr inbounds %"class.icu_75::number::FormattedNumberRange", ptr %2, i32 0, i32 2
  %3 = load i32, ptr %fErrorCode3, align 8
  store i32 %3, ptr %fErrorCode, align 8
  %4 = load ptr, ptr %src.addr, align 8
  %fData4 = getelementptr inbounds %"class.icu_75::number::FormattedNumberRange", ptr %4, i32 0, i32 1
  store ptr null, ptr %fData4, align 8
  %5 = load ptr, ptr %src.addr, align 8
  %fErrorCode5 = getelementptr inbounds %"class.icu_75::number::FormattedNumberRange", ptr %5, i32 0, i32 2
  store i32 27, ptr %fErrorCode5, align 8
  ret void
}