; Function Attrs: mustprogress nofree norecurse nosync nounwind willreturn memory(argmem: readwrite) uwtable
define void @_ZN6icu_756number20FormattedNumberRangeC2EOS1_(ptr nocapture noundef nonnull writeonly align 8 dereferenceable(20) %this, ptr nocapture noundef nonnull align 8 dereferenceable(20) %src) unnamed_addr #6 align 2 {
entry:
  store ptr getelementptr inbounds ({ [8 x ptr] }, ptr @_ZTVN6icu_756number20FormattedNumberRangeE, i64 0, i32 0, i64 2), ptr %this, align 8
  %fData = getelementptr inbounds i8, ptr %this, i64 8
  %fData2 = getelementptr inbounds i8, ptr %src, i64 8
  %0 = load ptr, ptr %fData2, align 8
  store ptr %0, ptr %fData, align 8
  %fErrorCode = getelementptr inbounds i8, ptr %this, i64 16
  %fErrorCode3 = getelementptr inbounds i8, ptr %src, i64 16
  %1 = load i32, ptr %fErrorCode3, align 8
  store i32 %1, ptr %fErrorCode, align 8
  store ptr null, ptr %fData2, align 8
  store i32 27, ptr %fErrorCode3, align 8
  ret void
}